target datalayout = "e-m:e-p270:32:32-p271:32:32-p272:64:64-i64:64-i128:128-f80:128-n8:16:32:64-S128"
target triple = "x86_64-pc-linux-gnu"

%"class.llvm::CodeViewContext" = type <{ ptr, %"class.llvm::StringMap", ptr, i8, [7 x i8], %"class.llvm::SmallVector", %"class.std::map", %"class.std::vector", %"class.std::vector.3", i8, [7 x i8] }>
%"class.llvm::StringMap" = type { %"class.llvm::StringMapImpl" }
%"class.llvm::StringMapImpl" = type { ptr, i32, i32, i32, i32 }
%"class.llvm::SmallVector" = type { %"class.llvm::SmallVectorImpl", %"struct.llvm::SmallVectorStorage" }
%"class.llvm::SmallVectorImpl" = type { %"class.llvm::SmallVectorTemplateBase" }
%"class.llvm::SmallVectorTemplateBase" = type { %"class.llvm::SmallVectorTemplateCommon" }
%"class.llvm::SmallVectorTemplateCommon" = type { %"class.llvm::SmallVectorBase" }
%"class.llvm::SmallVectorBase" = type { ptr, i32, i32 }
%"struct.llvm::SmallVectorStorage" = type { [128 x i8] }
%"class.std::map" = type { %"class.std::_Rb_tree" }
%"class.std::_Rb_tree" = type { %"struct.std::_Rb_tree<unsigned int, std::pair<const unsigned int, std::pair<unsigned long, unsigned long>>, std::_Select1st<std::pair<const unsigned int, std::pair<unsigned long, unsigned long>>>, std::less<unsigned int>>::_Rb_tree_impl" }
%"struct.std::_Rb_tree<unsigned int, std::pair<const unsigned int, std::pair<unsigned long, unsigned long>>, std::_Select1st<std::pair<const unsigned int, std::pair<unsigned long, unsigned long>>>, std::less<unsigned int>>::_Rb_tree_impl" = type { [8 x i8], %"struct.std::_Rb_tree_header" }
%"struct.std::_Rb_tree_header" = type { %"struct.std::_Rb_tree_node_base", i64 }
%"struct.std::_Rb_tree_node_base" = type { i32, ptr, ptr, ptr }
%"class.std::vector" = type { %"struct.std::_Vector_base" }
%"struct.std::_Vector_base" = type { %"struct.std::_Vector_base<llvm::MCCVLoc, std::allocator<llvm::MCCVLoc>>::_Vector_impl" }
%"struct.std::_Vector_base<llvm::MCCVLoc, std::allocator<llvm::MCCVLoc>>::_Vector_impl" = type { %"struct.std::_Vector_base<llvm::MCCVLoc, std::allocator<llvm::MCCVLoc>>::_Vector_impl_data" }
%"struct.std::_Vector_base<llvm::MCCVLoc, std::allocator<llvm::MCCVLoc>>::_Vector_impl_data" = type { ptr, ptr, ptr }
%"class.std::vector.3" = type { %"struct.std::_Vector_base.4" }
%"struct.std::_Vector_base.4" = type { %"struct.std::_Vector_base<llvm::MCCVFunctionInfo, std::allocator<llvm::MCCVFunctionInfo>>::_Vector_impl" }
%"struct.std::_Vector_base<llvm::MCCVFunctionInfo, std::allocator<llvm::MCCVFunctionInfo>>::_Vector_impl" = type { %"struct.std::_Vector_base<llvm::MCCVFunctionInfo, std::allocator<llvm::MCCVFunctionInfo>>::_Vector_impl_data" }
%"struct.std::_Vector_base<llvm::MCCVFunctionInfo, std::allocator<llvm::MCCVFunctionInfo>>::_Vector_impl_data" = type { ptr, ptr, ptr }
%"class.llvm::StringRef" = type { ptr, i64 }
%"class.llvm::Twine" = type <{ %"union.llvm::Twine::Child", %"union.llvm::Twine::Child", i8, i8, [6 x i8] }>
%"union.llvm::Twine::Child" = type { %struct.anon }
%struct.anon = type { ptr, i64 }
%"class.llvm::MCStreamer" = type { ptr, ptr, %"class.std::unique_ptr", %"class.std::vector.21", %"class.llvm::SmallVector.26", %"class.std::vector.31", ptr, i64, %"class.llvm::SmallVector.36", ptr, i32, i8, i8, ptr }
%"class.std::unique_ptr" = type { %"struct.std::__uniq_ptr_data" }
%"struct.std::__uniq_ptr_data" = type { %"class.std::__uniq_ptr_impl" }
%"class.std::__uniq_ptr_impl" = type { %"class.std::tuple" }
%"class.std::tuple" = type { %"struct.std::_Tuple_impl" }
%"struct.std::_Tuple_impl" = type { %"struct.std::_Head_base.20" }
%"struct.std::_Head_base.20" = type { ptr }
%"class.std::vector.21" = type { %"struct.std::_Vector_base.22" }
%"struct.std::_Vector_base.22" = type { %"struct.std::_Vector_base<llvm::MCDwarfFrameInfo, std::allocator<llvm::MCDwarfFrameInfo>>::_Vector_impl" }
%"struct.std::_Vector_base<llvm::MCDwarfFrameInfo, std::allocator<llvm::MCDwarfFrameInfo>>::_Vector_impl" = type { %"struct.std::_Vector_base<llvm::MCDwarfFrameInfo, std::allocator<llvm::MCDwarfFrameInfo>>::_Vector_impl_data" }
%"struct.std::_Vector_base<llvm::MCDwarfFrameInfo, std::allocator<llvm::MCDwarfFrameInfo>>::_Vector_impl_data" = type { ptr, ptr, ptr }
%"class.llvm::SmallVector.26" = type { %"class.llvm::SmallVectorImpl.27", %"struct.llvm::SmallVectorStorage.30" }
%"class.llvm::SmallVectorImpl.27" = type { %"class.llvm::SmallVectorTemplateBase.28" }
%"class.llvm::SmallVectorTemplateBase.28" = type { %"class.llvm::SmallVectorTemplateCommon.29" }
%"class.llvm::SmallVectorTemplateCommon.29" = type { %"class.llvm::SmallVectorBase" }
%"struct.llvm::SmallVectorStorage.30" = type { [16 x i8] }
%"class.std::vector.31" = type { %"struct.std::_Vector_base.32" }
%"struct.std::_Vector_base.32" = type { %"struct.std::_Vector_base<std::unique_ptr<llvm::WinEH::FrameInfo>, std::allocator<std::unique_ptr<llvm::WinEH::FrameInfo>>>::_Vector_impl" }
%"struct.std::_Vector_base<std::unique_ptr<llvm::WinEH::FrameInfo>, std::allocator<std::unique_ptr<llvm::WinEH::FrameInfo>>>::_Vector_impl" = type { %"struct.std::_Vector_base<std::unique_ptr<llvm::WinEH::FrameInfo>, std::allocator<std::unique_ptr<llvm::WinEH::FrameInfo>>>::_Vector_impl_data" }
%"struct.std::_Vector_base<std::unique_ptr<llvm::WinEH::FrameInfo>, std::allocator<std::unique_ptr<llvm::WinEH::FrameInfo>>>::_Vector_impl_data" = type { ptr, ptr, ptr }
%"class.llvm::SmallVector.36" = type { %"class.llvm::SmallVectorImpl.37", %"struct.llvm::SmallVectorStorage.40" }
%"class.llvm::SmallVectorImpl.37" = type { %"class.llvm::SmallVectorTemplateBase.38" }
%"class.llvm::SmallVectorTemplateBase.38" = type { %"class.llvm::SmallVectorTemplateCommon.39" }
%"class.llvm::SmallVectorTemplateCommon.39" = type { %"class.llvm::SmallVectorBase" }
%"struct.llvm::SmallVectorStorage.40" = type { [128 x i8] }
%"class.llvm::MCFragment.base" = type <{ ptr, ptr, i64, i32, i8, i8 }>
%"class.llvm::SMLoc" = type { ptr }
%"struct.llvm::Align" = type { i8 }
%"class.llvm::MCFragment" = type <{ ptr, ptr, i64, i32, i8, i8, [2 x i8] }>
%"struct.llvm::MCSection::FragList" = type { ptr, ptr }
%"class.llvm::MCSection" = type <{ ptr, ptr, ptr, ptr, %"struct.llvm::Align", [3 x i8], i32, i32, i32, i8, [7 x i8], %"class.llvm::MCDummyFragment", %"class.llvm::SmallVector.245", %"class.llvm::StringRef", i32, [4 x i8] }>
%"class.llvm::MCDummyFragment" = type { %"class.llvm::MCFragment.base", [2 x i8] }
%"class.llvm::SmallVector.245" = type { %"class.llvm::SmallVectorImpl.246", %"struct.llvm::SmallVectorStorage.249" }
%"class.llvm::SmallVectorImpl.246" = type { %"class.llvm::SmallVectorTemplateBase.247" }
%"class.llvm::SmallVectorTemplateBase.247" = type { %"class.llvm::SmallVectorTemplateCommon.248" }
%"class.llvm::SmallVectorTemplateCommon.248" = type { %"class.llvm::SmallVectorBase" }
%"struct.llvm::SmallVectorStorage.249" = type { [24 x i8] }

@.str.2 = private unnamed_addr constant [13 x i8] c"strtab_begin\00", align 1
@.str.3 = private unnamed_addr constant [11 x i8] c"strtab_end\00", align 1

; Function Attrs: mustprogress nounwind uwtable
define linkonce_odr hidden noundef i32 @_ZN4llvm6detail19LeadingZerosCounterImLm8EE5countEm(i64 noundef %0) #0 comdat align 2 {
  %2 = alloca i32, align 4
  %3 = alloca i64, align 8
  store i64 %0, ptr %3, align 8
  %4 = load i64, ptr %3, align 8
  %5 = icmp eq i64 %4, 0
  br i1 %5, label %6, label %7

6:                                                ; preds = %1
  store i32 64, ptr %2, align 4
  br label %11

7:                                                ; preds = %1
  %8 = load i64, ptr %3, align 8
  %9 = call i64 @llvm.ctlz.i64(i64 %8, i1 true)
  %10 = trunc i64 %9 to i32
  store i32 %10, ptr %2, align 4
  br label %11

11:                                               ; preds = %7, %6
  %12 = load i32, ptr %2, align 4
  ret i32 %12
}

; Function Attrs: mustprogress nounwind uwtable
define linkonce_odr noundef i32 @_ZN4llvm11countl_zeroImEEiT_(i64 noundef %0) #0 comdat {
  %2 = alloca i64, align 8
  store i64 %0, ptr %2, align 8
  %3 = load i64, ptr %2, align 8
  %4 = call noundef i32 @_ZN4llvm6detail19LeadingZerosCounterImLm8EE5countEm(i64 noundef %3)
  ret i32 %4
}

; Function Attrs: mustprogress nounwind uwtable
define linkonce_odr hidden noundef i32 @_ZN4llvm7Log2_64Em(i64 noundef %0) #0 comdat {
  %2 = alloca i64, align 8
  store i64 %0, ptr %2, align 8
  %3 = load i64, ptr %2, align 8
  %4 = call noundef i32 @_ZN4llvm11countl_zeroImEEiT_(i64 noundef %3)
  %5 = sub nsw i32 63, %4
  ret i32 %5
}

; Function Attrs: mustprogress nounwind uwtable
define linkonce_odr hidden noundef ptr @_ZNK4llvm9MCSection11curFragListEv(ptr noundef nonnull align 8 dereferenceable(148) %0) #0 comdat align 2 {
  %2 = alloca ptr, align 8
  store ptr %0, ptr %2, align 8
  %3 = load ptr, ptr %2, align 8
  %4 = getelementptr inbounds nuw %"class.llvm::MCSection", ptr %3, i32 0, i32 1
  %5 = load ptr, ptr %4, align 8
  ret ptr %5
}

; Function Attrs: mustprogress nounwind uwtable
define linkonce_odr hidden void @_ZN4llvm10MCFragment14setLayoutOrderEj(ptr noundef nonnull align 8 dereferenceable(30) %0, i32 noundef %1) #0 comdat align 2 {
  %3 = alloca ptr, align 8
  %4 = alloca i32, align 4
  store ptr %0, ptr %3, align 8
  store i32 %1, ptr %4, align 4
  %5 = load ptr, ptr %3, align 8
  %6 = load i32, ptr %4, align 4
  %7 = getelementptr inbounds nuw %"class.llvm::MCFragment", ptr %5, i32 0, i32 3
  store i32 %6, ptr %7, align 8
  ret void
}

; Function Attrs: mustprogress nounwind uwtable
define linkonce_odr hidden noundef i32 @_ZNK4llvm10MCFragment14getLayoutOrderEv(ptr noundef nonnull align 8 dereferenceable(30) %0) #0 comdat align 2 {
  %2 = alloca ptr, align 8
  store ptr %0, ptr %2, align 8
  %3 = load ptr, ptr %2, align 8
  %4 = getelementptr inbounds nuw %"class.llvm::MCFragment", ptr %3, i32 0, i32 3
  %5 = load i32, ptr %4, align 8
  ret i32 %5
}

; Function Attrs: mustprogress nounwind uwtable
define linkonce_odr hidden void @_ZN4llvm10MCFragment9setParentEPNS_9MCSectionE(ptr noundef nonnull align 8 dereferenceable(30) %0, ptr noundef %1) #0 comdat align 2 {
  %3 = alloca ptr, align 8
  %4 = alloca ptr, align 8
  store ptr %0, ptr %3, align 8
  store ptr %1, ptr %4, align 8
  %5 = load ptr, ptr %3, align 8
  %6 = load ptr, ptr %4, align 8
  %7 = getelementptr inbounds nuw %"class.llvm::MCFragment", ptr %5, i32 0, i32 1
  store ptr %6, ptr %7, align 8
  ret void
}

; Function Attrs: mustprogress nounwind uwtable
define linkonce_odr hidden noundef ptr @_ZNK4llvm10MCFragment9getParentEv(ptr noundef nonnull align 8 dereferenceable(30) %0) #0 comdat align 2 {
  %2 = alloca ptr, align 8
  store ptr %0, ptr %2, align 8
  %3 = load ptr, ptr %2, align 8
  %4 = getelementptr inbounds nuw %"class.llvm::MCFragment", ptr %3, i32 0, i32 1
  %5 = load ptr, ptr %4, align 8
  ret ptr %5
}

; Function Attrs: mustprogress nounwind uwtable
define linkonce_odr hidden void @_ZN4llvm5AlignC2Em(ptr noundef nonnull align 1 dereferenceable(1) %0, i64 noundef %1) unnamed_addr #0 comdat align 2 {
  %3 = alloca ptr, align 8
  %4 = alloca i64, align 8
  store ptr %0, ptr %3, align 8
  store i64 %1, ptr %4, align 8
  %5 = load ptr, ptr %3, align 8
  %6 = getelementptr inbounds nuw %"struct.llvm::Align", ptr %5, i32 0, i32 0
  store i8 0, ptr %6, align 1
  %7 = load i64, ptr %4, align 8
  %8 = call noundef i32 @_ZN4llvm7Log2_64Em(i64 noundef %7)
  %9 = trunc i32 %8 to i8
  %10 = getelementptr inbounds nuw %"struct.llvm::Align", ptr %5, i32 0, i32 0
  store i8 %9, ptr %10, align 1
  ret void
}

; Function Attrs: mustprogress nounwind uwtable
define linkonce_odr hidden void @_ZN4llvm16MCObjectStreamer6insertEPNS_10MCFragmentE(ptr noundef nonnull align 8 dereferenceable(424) %0, ptr noundef %1) #0 comdat align 2 {
  %3 = alloca ptr, align 8
  %4 = alloca ptr, align 8
  %5 = alloca ptr, align 8
  store ptr %0, ptr %3, align 8
  store ptr %1, ptr %4, align 8
  %6 = load ptr, ptr %3, align 8
  %7 = getelementptr inbounds nuw %"class.llvm::MCStreamer", ptr %6, i32 0, i32 13
  %8 = load ptr, ptr %7, align 8
  %9 = call noundef ptr @_ZNK4llvm10MCFragment9getParentEv(ptr noundef nonnull align 8 dereferenceable(30) %8)
  store ptr %9, ptr %5, align 8
  %10 = load ptr, ptr %4, align 8
  %11 = load ptr, ptr %5, align 8
  call void @_ZN4llvm10MCFragment9setParentEPNS_9MCSectionE(ptr noundef nonnull align 8 dereferenceable(30) %10, ptr noundef %11)
  %12 = load ptr, ptr %4, align 8
  %13 = getelementptr inbounds nuw %"class.llvm::MCStreamer", ptr %6, i32 0, i32 13
  %14 = load ptr, ptr %13, align 8
  %15 = call noundef i32 @_ZNK4llvm10MCFragment14getLayoutOrderEv(ptr noundef nonnull align 8 dereferenceable(30) %14)
  %16 = add i32 %15, 1
  call void @_ZN4llvm10MCFragment14setLayoutOrderEj(ptr noundef nonnull align 8 dereferenceable(30) %12, i32 noundef %16)
  %17 = load ptr, ptr %4, align 8
  %18 = getelementptr inbounds nuw %"class.llvm::MCStreamer", ptr %6, i32 0, i32 13
  %19 = load ptr, ptr %18, align 8
  %20 = getelementptr inbounds nuw %"class.llvm::MCFragment", ptr %19, i32 0, i32 0
  store ptr %17, ptr %20, align 8
  %21 = load ptr, ptr %4, align 8
  %22 = getelementptr inbounds nuw %"class.llvm::MCStreamer", ptr %6, i32 0, i32 13
  store ptr %21, ptr %22, align 8
  %23 = load ptr, ptr %4, align 8
  %24 = load ptr, ptr %5, align 8
  %25 = call noundef ptr @_ZNK4llvm9MCSection11curFragListEv(ptr noundef nonnull align 8 dereferenceable(148) %24)
  %26 = getelementptr inbounds nuw %"struct.llvm::MCSection::FragList", ptr %25, i32 0, i32 1
  store ptr %23, ptr %26, align 8
  ret void
}

; Function Attrs: mustprogress nounwind uwtable
define linkonce_odr hidden void @_ZN4llvm5SMLocC2Ev(ptr noundef nonnull align 8 dereferenceable(8) %0) unnamed_addr #0 comdat align 2 {
  %2 = alloca ptr, align 8
  store ptr %0, ptr %2, align 8
  %3 = load ptr, ptr %2, align 8
  %4 = getelementptr inbounds nuw %"class.llvm::SMLoc", ptr %3, i32 0, i32 0
  store ptr null, ptr %4, align 8
  ret void
}

; Function Attrs: mustprogress nounwind uwtable
define linkonce_odr hidden void @_ZN4llvm10MCStreamer9emitInt32Em(ptr noundef nonnull align 8 dereferenceable(288) %0, i64 noundef %1) #0 comdat align 2 {
  %3 = alloca ptr, align 8
  %4 = alloca i64, align 8
  store ptr %0, ptr %3, align 8
  store i64 %1, ptr %4, align 8
  %5 = load ptr, ptr %3, align 8
  %6 = load i64, ptr %4, align 8
  %7 = load ptr, ptr %5, align 8
  %8 = getelementptr inbounds ptr, ptr %7, i64 65
  %9 = load ptr, ptr %8, align 8
  call void %9(ptr noundef nonnull align 8 dereferenceable(288) %5, i64 noundef %6, i32 noundef 4)
  ret void
}

; Function Attrs: mustprogress nounwind uwtable
define linkonce_odr hidden void @_ZN4llvm5TwineC2EPKc(ptr noundef nonnull align 8 dereferenceable(34) %0, ptr noundef %1) unnamed_addr #0 comdat align 2 {
  %3 = alloca ptr, align 8
  %4 = alloca ptr, align 8
  store ptr %0, ptr %3, align 8
  store ptr %1, ptr %4, align 8
  %5 = load ptr, ptr %3, align 8
  %6 = getelementptr inbounds nuw %"class.llvm::Twine", ptr %5, i32 0, i32 2
  store i8 1, ptr %6, align 8
  %7 = getelementptr inbounds nuw %"class.llvm::Twine", ptr %5, i32 0, i32 3
  store i8 1, ptr %7, align 1
  %8 = load ptr, ptr %4, align 8
  %9 = getelementptr inbounds i8, ptr %8, i64 0
  %10 = load i8, ptr %9, align 1
  %11 = sext i8 %10 to i32
  %12 = icmp ne i32 %11, 0
  br i1 %12, label %13, label %17

13:                                               ; preds = %2
  %14 = load ptr, ptr %4, align 8
  %15 = getelementptr inbounds nuw %"class.llvm::Twine", ptr %5, i32 0, i32 0
  store ptr %14, ptr %15, align 8
  %16 = getelementptr inbounds nuw %"class.llvm::Twine", ptr %5, i32 0, i32 2
  store i8 3, ptr %16, align 8
  br label %19

17:                                               ; preds = %2
  %18 = getelementptr inbounds nuw %"class.llvm::Twine", ptr %5, i32 0, i32 2
  store i8 1, ptr %18, align 8
  br label %19

19:                                               ; preds = %17, %13
  ret void
}

; Function Attrs: mustprogress nounwind uwtable
define linkonce_odr hidden noundef nonnull align 8 dereferenceable(2432) ptr @_ZNK4llvm10MCStreamer10getContextEv(ptr noundef nonnull align 8 dereferenceable(288) %0) #0 comdat align 2 {
  %2 = alloca ptr, align 8
  store ptr %0, ptr %2, align 8
  %3 = load ptr, ptr %2, align 8
  %4 = getelementptr inbounds nuw %"class.llvm::MCStreamer", ptr %3, i32 0, i32 1
  %5 = load ptr, ptr %4, align 8
  ret ptr %5
}

; Function Attrs: mustprogress nounwind uwtable
define dso_local void @_ZN4llvm15CodeViewContext15emitStringTableERNS_16MCObjectStreamerE(ptr noundef nonnull align 8 dereferenceable(289) %0, ptr noundef nonnull align 8 dereferenceable(424) %1) #0 align 2 {
  %3 = alloca ptr, align 8
  %4 = alloca ptr, align 8
  %5 = alloca ptr, align 8
  %6 = alloca ptr, align 8
  %7 = alloca %"class.llvm::Twine", align 8
  %8 = alloca ptr, align 8
  %9 = alloca %"class.llvm::Twine", align 8
  %10 = alloca %"class.llvm::SMLoc", align 8
  %11 = alloca %"struct.llvm::Align", align 1
  %12 = alloca %"class.llvm::SMLoc", align 8
  store ptr %0, ptr %3, align 8
  store ptr %1, ptr %4, align 8
  %13 = load ptr, ptr %3, align 8
  %14 = load ptr, ptr %4, align 8
  %15 = call noundef nonnull align 8 dereferenceable(2432) ptr @_ZNK4llvm10MCStreamer10getContextEv(ptr noundef nonnull align 8 dereferenceable(288) %14)
  store ptr %15, ptr %5, align 8
  %16 = load ptr, ptr %5, align 8
  call void @_ZN4llvm5TwineC2EPKc(ptr noundef nonnull align 8 dereferenceable(34) %7, ptr noundef @.str.2)
  %17 = call noundef ptr @_ZN4llvm9MCContext16createTempSymbolERKNS_5TwineEb(ptr noundef nonnull align 8 dereferenceable(2432) %16, ptr noundef nonnull align 8 dereferenceable(34) %7, i1 noundef zeroext false)
  store ptr %17, ptr %6, align 8
  %18 = load ptr, ptr %5, align 8
  call void @_ZN4llvm5TwineC2EPKc(ptr noundef nonnull align 8 dereferenceable(34) %9, ptr noundef @.str.3)
  %19 = call noundef ptr @_ZN4llvm9MCContext16createTempSymbolERKNS_5TwineEb(ptr noundef nonnull align 8 dereferenceable(2432) %18, ptr noundef nonnull align 8 dereferenceable(34) %9, i1 noundef zeroext false)
  store ptr %19, ptr %8, align 8
  %20 = load ptr, ptr %4, align 8
  call void @_ZN4llvm10MCStreamer9emitInt32Em(ptr noundef nonnull align 8 dereferenceable(288) %20, i64 noundef 243)
  %21 = load ptr, ptr %4, align 8
  %22 = load ptr, ptr %8, align 8
  %23 = load ptr, ptr %6, align 8
  %24 = load ptr, ptr %21, align 8
  %25 = getelementptr inbounds ptr, ptr %24, i64 106
  %26 = load ptr, ptr %25, align 8
  call void %26(ptr noundef nonnull align 8 dereferenceable(424) %21, ptr noundef %22, ptr noundef %23, i32 noundef 4)
  %27 = load ptr, ptr %4, align 8
  %28 = load ptr, ptr %6, align 8
  call void @llvm.memset.p0.i64(ptr align 8 %10, i8 0, i64 8, i1 false)
  call void @_ZN4llvm5SMLocC2Ev(ptr noundef nonnull align 8 dereferenceable(8) %10) #10
  %29 = getelementptr inbounds nuw %"class.llvm::SMLoc", ptr %10, i32 0, i32 0
  %30 = load ptr, ptr %29, align 8
  %31 = load ptr, ptr %27, align 8
  %32 = getelementptr inbounds ptr, ptr %31, i64 25
  %33 = load ptr, ptr %32, align 8
  call void %33(ptr noundef nonnull align 8 dereferenceable(424) %27, ptr noundef %28, ptr %30)
  %34 = getelementptr inbounds nuw %"class.llvm::CodeViewContext", ptr %13, i32 0, i32 3
  %35 = load i8, ptr %34, align 8
  %36 = trunc i8 %35 to i1
  br i1 %36, label %41, label %37

37:                                               ; preds = %2
  %38 = load ptr, ptr %4, align 8
  %39 = call noundef ptr @_ZN4llvm15CodeViewContext22getStringTableFragmentEv(ptr noundef nonnull align 8 dereferenceable(289) %13)
  call void @_ZN4llvm16MCObjectStreamer6insertEPNS_10MCFragmentE(ptr noundef nonnull align 8 dereferenceable(424) %38, ptr noundef %39)
  %40 = getelementptr inbounds nuw %"class.llvm::CodeViewContext", ptr %13, i32 0, i32 3
  store i8 1, ptr %40, align 8
  br label %41

41:                                               ; preds = %37, %2
  %42 = load ptr, ptr %4, align 8
  call void @_ZN4llvm5AlignC2Em(ptr noundef nonnull align 1 dereferenceable(1) %11, i64 noundef 4)
  %43 = getelementptr inbounds nuw %"struct.llvm::Align", ptr %11, i32 0, i32 0
  %44 = load i8, ptr %43, align 1
  %45 = load ptr, ptr %42, align 8
  %46 = getelementptr inbounds ptr, ptr %45, i64 80
  %47 = load ptr, ptr %46, align 8
  call void %47(ptr noundef nonnull align 8 dereferenceable(424) %42, i8 %44, i64 noundef 0, i32 noundef 1, i32 noundef 0)
  %48 = load ptr, ptr %4, align 8
  %49 = load ptr, ptr %8, align 8
  call void @llvm.memset.p0.i64(ptr align 8 %12, i8 0, i64 8, i1 false)
  call void @_ZN4llvm5SMLocC2Ev(ptr noundef nonnull align 8 dereferenceable(8) %12) #10
  %50 = getelementptr inbounds nuw %"class.llvm::SMLoc", ptr %12, i32 0, i32 0
  %51 = load ptr, ptr %50, align 8
  %52 = load ptr, ptr %48, align 8
  %53 = getelementptr inbounds ptr, ptr %52, i64 25
  %54 = load ptr, ptr %53, align 8
  call void %54(ptr noundef nonnull align 8 dereferenceable(424) %48, ptr noundef %49, ptr %51)
  ret void
}