; Function Attrs: mustprogress nounwind uwtable
define dso_local void @_ZN4llvm15CodeViewContext15emitStringTableERNS_16MCObjectStreamerE(ptr nocapture noundef nonnull align 8 dereferenceable(289) %0, ptr noundef nonnull align 8 dereferenceable(424) %1) local_unnamed_addr #0 align 2 {
  %3 = alloca %"class.llvm::Twine", align 8
  %4 = alloca %"class.llvm::Twine", align 8
  %5 = getelementptr inbounds nuw i8, ptr %1, i64 8
  %6 = load ptr, ptr %5, align 8
  %7 = getelementptr inbounds nuw i8, ptr %3, i64 32
  %8 = getelementptr inbounds nuw i8, ptr %3, i64 33
  store i8 1, ptr %8, align 1
  store ptr @.str.2, ptr %3, align 8
  store i8 3, ptr %7, align 8
  %9 = call noundef ptr @_ZN4llvm9MCContext16createTempSymbolERKNS_5TwineEb(ptr noundef nonnull align 8 dereferenceable(2432) %6, ptr noundef nonnull align 8 dereferenceable(34) %3, i1 noundef zeroext false) #16
  %10 = getelementptr inbounds nuw i8, ptr %4, i64 32
  %11 = getelementptr inbounds nuw i8, ptr %4, i64 33
  store i8 1, ptr %11, align 1
  store ptr @.str.3, ptr %4, align 8
  store i8 3, ptr %10, align 8
  %12 = call noundef ptr @_ZN4llvm9MCContext16createTempSymbolERKNS_5TwineEb(ptr noundef nonnull align 8 dereferenceable(2432) %6, ptr noundef nonnull align 8 dereferenceable(34) %4, i1 noundef zeroext false) #16
  %13 = load ptr, ptr %1, align 8
  %14 = getelementptr inbounds i8, ptr %13, i64 520
  %15 = load ptr, ptr %14, align 8
  call void %15(ptr noundef nonnull align 8 dereferenceable(288) %1, i64 noundef 243, i32 noundef 4) #16
  %16 = load ptr, ptr %1, align 8
  %17 = getelementptr inbounds i8, ptr %16, i64 848
  %18 = load ptr, ptr %17, align 8
  call void %18(ptr noundef nonnull align 8 dereferenceable(424) %1, ptr noundef %12, ptr noundef %9, i32 noundef 4) #16
  %19 = load ptr, ptr %1, align 8
  %20 = getelementptr inbounds i8, ptr %19, i64 200
  %21 = load ptr, ptr %20, align 8
  call void %21(ptr noundef nonnull align 8 dereferenceable(424) %1, ptr noundef %9, ptr null) #16
  %22 = getelementptr inbounds nuw i8, ptr %0, i64 40
  %23 = load i8, ptr %22, align 8
  %24 = trunc i8 %23 to i1
  br i1 %24, label %41, label %25

25:                                               ; preds = %2
  %26 = call noundef ptr @_ZN4llvm15CodeViewContext22getStringTableFragmentEv(ptr noundef nonnull align 8 dereferenceable(289) %0)
  %27 = getelementptr inbounds nuw i8, ptr %1, i64 280
  %28 = load ptr, ptr %27, align 8
  %29 = getelementptr inbounds nuw i8, ptr %28, i64 8
  %30 = load ptr, ptr %29, align 8
  %31 = getelementptr inbounds nuw i8, ptr %26, i64 8
  store ptr %30, ptr %31, align 8
  %32 = load ptr, ptr %27, align 8
  %33 = getelementptr inbounds nuw i8, ptr %32, i64 24
  %34 = load i32, ptr %33, align 8
  %35 = add i32 %34, 1
  %36 = getelementptr inbounds nuw i8, ptr %26, i64 24
  store i32 %35, ptr %36, align 8
  %37 = load ptr, ptr %27, align 8
  store ptr %26, ptr %37, align 8
  store ptr %26, ptr %27, align 8
  %38 = getelementptr inbounds nuw i8, ptr %30, i64 8
  %39 = load ptr, ptr %38, align 8
  %40 = getelementptr inbounds nuw i8, ptr %39, i64 8
  store ptr %26, ptr %40, align 8
  store i8 1, ptr %22, align 8
  br label %41

41:                                               ; preds = %25, %2
  %42 = load ptr, ptr %1, align 8
  %43 = getelementptr inbounds i8, ptr %42, i64 640
  %44 = load ptr, ptr %43, align 8
  call void %44(ptr noundef nonnull align 8 dereferenceable(424) %1, i8 2, i64 noundef 0, i32 noundef 1, i32 noundef 0) #16
  %45 = load ptr, ptr %1, align 8
  %46 = getelementptr inbounds i8, ptr %45, i64 200
  %47 = load ptr, ptr %46, align 8
  call void %47(ptr noundef nonnull align 8 dereferenceable(424) %1, ptr noundef %12, ptr null) #16
  ret void
}